target datalayout = "e-m:e-p270:32:32-p271:32:32-p272:64:64-i64:64-i128:128-f80:128-n8:16:32:64-S128"
target triple = "x86_64-pc-linux-gnu"

%struct.Agobj_s = type { %struct.Agtag_s, ptr }
%struct.Agtag_s = type { i32, i64 }
%struct.Agraphinfo_t = type { %struct.Agrec_s, ptr, ptr, %struct.boxf, [4 x %struct.pointf_s], i8, i8, i8, i8, i32, double, double, i16, ptr, ptr, ptr, ptr, i32, ptr, ptr, ptr, ptr, i16, i16, i32, ptr, ptr, ptr, ptr, ptr, i32, ptr, ptr, %struct.nlist_t, ptr, ptr, i32, i32, i8, i8, i32, i32, i32, ptr, ptr, ptr, ptr, i8, i8, i8, i8, i8 }
%struct.Agrec_s = type { ptr, ptr }
%struct.boxf = type { %struct.pointf_s, %struct.pointf_s }
%struct.pointf_s = type { double, double }
%struct.nlist_t = type { ptr, i64 }
%struct.Agnodeinfo_t = type { %struct.Agrec_s, ptr, ptr, %struct.pointf_s, double, double, %struct.boxf, double, double, double, double, double, ptr, ptr, ptr, i8, i8, i8, i8, i32, i32, i32, ptr, double, i8, i8, ptr, ptr, i8, i64, i8, i8, i8, ptr, ptr, %struct.elist, %struct.elist, %struct.elist, %struct.elist, %struct.elist, ptr, i32, ptr, i32, i32, double, %struct.elist, %struct.elist, %struct.elist, %struct.elist, ptr, i32, i32, i32, [1 x double] }
%struct.elist = type { ptr, i64 }

; Function Attrs: nounwind uwtable
define internal void @setMinMax(ptr noundef %0, i32 noundef %1) #0 {
  %3 = alloca ptr, align 8
  %4 = alloca i32, align 4
  %5 = alloca i32, align 4
  %6 = alloca i32, align 4
  %7 = alloca ptr, align 8
  %8 = alloca ptr, align 8
  %9 = alloca i32, align 4
  store ptr %0, ptr %3, align 8, !tbaa !3
  store i32 %1, ptr %4, align 4, !tbaa !45
  call void @llvm.lifetime.start.p0(i64 4, ptr %5) #13
  call void @llvm.lifetime.start.p0(i64 4, ptr %6) #13
  call void @llvm.lifetime.start.p0(i64 8, ptr %7) #13
  call void @llvm.lifetime.start.p0(i64 8, ptr %8) #13
  store ptr null, ptr %8, align 8, !tbaa !8
  store i32 1, ptr %5, align 4, !tbaa !45
  br label %10

10:                                               ; preds = %28, %2
  %11 = load i32, ptr %5, align 4, !tbaa !45
  %12 = load ptr, ptr %3, align 8, !tbaa !3
  %13 = getelementptr inbounds nuw %struct.Agobj_s, ptr %12, i32 0, i32 1
  %14 = load ptr, ptr %13, align 8, !tbaa !10
  %15 = getelementptr inbounds nuw %struct.Agraphinfo_t, ptr %14, i32 0, i32 24
  %16 = load i32, ptr %15, align 4, !tbaa !51
  %17 = icmp sle i32 %11, %16
  br i1 %17, label %18, label %31

18:                                               ; preds = %10
  %19 = load ptr, ptr %3, align 8, !tbaa !3
  %20 = getelementptr inbounds nuw %struct.Agobj_s, ptr %19, i32 0, i32 1
  %21 = load ptr, ptr %20, align 8, !tbaa !10
  %22 = getelementptr inbounds nuw %struct.Agraphinfo_t, ptr %21, i32 0, i32 25
  %23 = load ptr, ptr %22, align 8, !tbaa !86
  %24 = load i32, ptr %5, align 4, !tbaa !45
  %25 = sext i32 %24 to i64
  %26 = getelementptr inbounds ptr, ptr %23, i64 %25
  %27 = load ptr, ptr %26, align 8, !tbaa !3
  call void @setMinMax(ptr noundef %27, i32 noundef 0)
  br label %28

28:                                               ; preds = %18
  %29 = load i32, ptr %5, align 4, !tbaa !45
  %30 = add nsw i32 %29, 1
  store i32 %30, ptr %5, align 4, !tbaa !45
  br label %10, !llvm.loop !164

31:                                               ; preds = %10
  %32 = load ptr, ptr %3, align 8, !tbaa !3
  %33 = getelementptr inbounds nuw %struct.Agobj_s, ptr %32, i32 0, i32 1
  %34 = load ptr, ptr %33, align 8, !tbaa !10
  %35 = getelementptr inbounds nuw %struct.Agraphinfo_t, ptr %34, i32 0, i32 29
  %36 = load ptr, ptr %35, align 8, !tbaa !103
  %37 = icmp ne ptr %36, null
  br i1 %37, label %42, label %38

38:                                               ; preds = %31
  %39 = load i32, ptr %4, align 4, !tbaa !45
  %40 = icmp ne i32 %39, 0
  br i1 %40, label %42, label %41

41:                                               ; preds = %38
  store i32 1, ptr %9, align 4
  br label %101

42:                                               ; preds = %38, %31
  %43 = load ptr, ptr %3, align 8, !tbaa !3
  %44 = getelementptr inbounds nuw %struct.Agobj_s, ptr %43, i32 0, i32 1
  %45 = load ptr, ptr %44, align 8, !tbaa !10
  %46 = getelementptr inbounds nuw %struct.Agraphinfo_t, ptr %45, i32 0, i32 36
  store i32 2147483647, ptr %46, align 8, !tbaa !16
  %47 = load ptr, ptr %3, align 8, !tbaa !3
  %48 = getelementptr inbounds nuw %struct.Agobj_s, ptr %47, i32 0, i32 1
  %49 = load ptr, ptr %48, align 8, !tbaa !10
  %50 = getelementptr inbounds nuw %struct.Agraphinfo_t, ptr %49, i32 0, i32 37
  store i32 -1, ptr %50, align 4, !tbaa !34
  %51 = load ptr, ptr %3, align 8, !tbaa !3
  %52 = call ptr @agfstnode(ptr noundef %51)
  store ptr %52, ptr %7, align 8, !tbaa !8
  br label %53

53:                                               ; preds = %91, %42
  %54 = load ptr, ptr %7, align 8, !tbaa !8
  %55 = icmp ne ptr %54, null
  br i1 %55, label %56, label %95

56:                                               ; preds = %53
  %57 = load ptr, ptr %7, align 8, !tbaa !8
  %58 = getelementptr inbounds nuw %struct.Agobj_s, ptr %57, i32 0, i32 1
  %59 = load ptr, ptr %58, align 8, !tbaa !10
  %60 = getelementptr inbounds nuw %struct.Agnodeinfo_t, ptr %59, i32 0, i32 43
  %61 = load i32, ptr %60, align 8, !tbaa !35
  store i32 %61, ptr %6, align 4, !tbaa !45
  %62 = load ptr, ptr %3, align 8, !tbaa !3
  %63 = getelementptr inbounds nuw %struct.Agobj_s, ptr %62, i32 0, i32 1
  %64 = load ptr, ptr %63, align 8, !tbaa !10
  %65 = getelementptr inbounds nuw %struct.Agraphinfo_t, ptr %64, i32 0, i32 37
  %66 = load i32, ptr %65, align 4, !tbaa !34
  %67 = load i32, ptr %6, align 4, !tbaa !45
  %68 = icmp slt i32 %66, %67
  br i1 %68, label %69, label %75

69:                                               ; preds = %56
  %70 = load i32, ptr %6, align 4, !tbaa !45
  %71 = load ptr, ptr %3, align 8, !tbaa !3
  %72 = getelementptr inbounds nuw %struct.Agobj_s, ptr %71, i32 0, i32 1
  %73 = load ptr, ptr %72, align 8, !tbaa !10
  %74 = getelementptr inbounds nuw %struct.Agraphinfo_t, ptr %73, i32 0, i32 37
  store i32 %70, ptr %74, align 4, !tbaa !34
  br label %75

75:                                               ; preds = %69, %56
  %76 = load ptr, ptr %3, align 8, !tbaa !3
  %77 = getelementptr inbounds nuw %struct.Agobj_s, ptr %76, i32 0, i32 1
  %78 = load ptr, ptr %77, align 8, !tbaa !10
  %79 = getelementptr inbounds nuw %struct.Agraphinfo_t, ptr %78, i32 0, i32 36
  %80 = load i32, ptr %79, align 8, !tbaa !16
  %81 = load i32, ptr %6, align 4, !tbaa !45
  %82 = icmp sgt i32 %80, %81
  br i1 %82, label %83, label %90

83:                                               ; preds = %75
  %84 = load i32, ptr %6, align 4, !tbaa !45
  %85 = load ptr, ptr %3, align 8, !tbaa !3
  %86 = getelementptr inbounds nuw %struct.Agobj_s, ptr %85, i32 0, i32 1
  %87 = load ptr, ptr %86, align 8, !tbaa !10
  %88 = getelementptr inbounds nuw %struct.Agraphinfo_t, ptr %87, i32 0, i32 36
  store i32 %84, ptr %88, align 8, !tbaa !16
  %89 = load ptr, ptr %7, align 8, !tbaa !8
  store ptr %89, ptr %8, align 8, !tbaa !8
  br label %90

90:                                               ; preds = %83, %75
  br label %91

91:                                               ; preds = %90
  %92 = load ptr, ptr %3, align 8, !tbaa !3
  %93 = load ptr, ptr %7, align 8, !tbaa !8
  %94 = call ptr @agnxtnode(ptr noundef %92, ptr noundef %93)
  store ptr %94, ptr %7, align 8, !tbaa !8
  br label %53, !llvm.loop !165

95:                                               ; preds = %53
  %96 = load ptr, ptr %8, align 8, !tbaa !8
  %97 = load ptr, ptr %3, align 8, !tbaa !3
  %98 = getelementptr inbounds nuw %struct.Agobj_s, ptr %97, i32 0, i32 1
  %99 = load ptr, ptr %98, align 8, !tbaa !10
  %100 = getelementptr inbounds nuw %struct.Agraphinfo_t, ptr %99, i32 0, i32 45
  store ptr %96, ptr %100, align 8, !tbaa !44
  store i32 0, ptr %9, align 4
  br label %101

101:                                              ; preds = %95, %41
  call void @llvm.lifetime.end.p0(i64 8, ptr %8) #13
  call void @llvm.lifetime.end.p0(i64 8, ptr %7) #13
  call void @llvm.lifetime.end.p0(i64 4, ptr %6) #13
  call void @llvm.lifetime.end.p0(i64 4, ptr %5) #13
  %102 = load i32, ptr %9, align 4
  switch i32 %102, label %104 [
    i32 0, label %103
    i32 1, label %103
  ]

103:                                              ; preds = %101, %101
  ret void

104:                                              ; preds = %101
  unreachable
}