; Function Attrs: nounwind uwtable
define internal fastcc void @setMinMax(ptr noundef %0, i32 noundef range(i32 0, 2) %1) unnamed_addr #0 {
  %3 = getelementptr inbounds nuw i8, ptr %0, i64 16
  %4 = load ptr, ptr %3, align 8, !tbaa !3
  %5 = getelementptr inbounds nuw i8, ptr %4, i64 236
  %6 = load i32, ptr %5, align 4, !tbaa !47
  %.not31 = icmp slt i32 %6, 1
  br i1 %.not31, label %._crit_edge, label %.lr.ph

.lr.ph:                                           ; preds = %2, %.lr.ph
  %indvars.iv = phi i64 [ %indvars.iv.next, %.lr.ph ], [ 1, %2 ]
  %7 = phi ptr [ %12, %.lr.ph ], [ %4, %2 ]
  %8 = getelementptr inbounds nuw i8, ptr %7, i64 240
  %9 = load ptr, ptr %8, align 8, !tbaa !114
  %10 = getelementptr inbounds nuw ptr, ptr %9, i64 %indvars.iv
  %11 = load ptr, ptr %10, align 8, !tbaa !115
  tail call fastcc void @setMinMax(ptr noundef %11, i32 noundef 0)
  %indvars.iv.next = add nuw nsw i64 %indvars.iv, 1
  %12 = load ptr, ptr %3, align 8, !tbaa !3
  %13 = getelementptr inbounds nuw i8, ptr %12, i64 236
  %14 = load i32, ptr %13, align 4, !tbaa !47
  %15 = sext i32 %14 to i64
  %.not.not = icmp slt i64 %indvars.iv, %15
  br i1 %.not.not, label %.lr.ph, label %._crit_edge, !llvm.loop !148

._crit_edge:                                      ; preds = %.lr.ph, %2
  %.lcssa = phi ptr [ %4, %2 ], [ %12, %.lr.ph ]
  %16 = getelementptr inbounds nuw i8, ptr %.lcssa, i64 272
  %17 = load ptr, ptr %16, align 8, !tbaa !72
  %18 = icmp ne ptr %17, null
  %19 = icmp ne i32 %1, 0
  %or.cond = or i1 %19, %18
  br i1 %or.cond, label %20, label %42

20:                                               ; preds = %._crit_edge
  %21 = getelementptr inbounds nuw i8, ptr %.lcssa, i64 336
  store i32 2147483647, ptr %21, align 8, !tbaa !12
  %22 = getelementptr inbounds nuw i8, ptr %.lcssa, i64 340
  store i32 -1, ptr %22, align 4, !tbaa !32
  %23 = tail call ptr @agfstnode(ptr noundef nonnull %0) #15
  %.not2933 = icmp eq ptr %23, null
  br i1 %.not2933, label %._crit_edge38, label %.lr.ph37

.lr.ph37:                                         ; preds = %20, %38
  %.035 = phi ptr [ %.1, %38 ], [ null, %20 ]
  %.02534 = phi ptr [ %39, %38 ], [ %23, %20 ]
  %24 = getelementptr inbounds nuw i8, ptr %.02534, i64 16
  %25 = load ptr, ptr %24, align 8, !tbaa !3
  %26 = getelementptr inbounds nuw i8, ptr %25, i64 360
  %27 = load i32, ptr %26, align 8, !tbaa !33
  %28 = load ptr, ptr %3, align 8, !tbaa !3
  %29 = getelementptr inbounds nuw i8, ptr %28, i64 340
  %30 = load i32, ptr %29, align 4, !tbaa !32
  %31 = icmp slt i32 %30, %27
  br i1 %31, label %32, label %33

32:                                               ; preds = %.lr.ph37
  store i32 %27, ptr %29, align 4, !tbaa !32
  br label %33

33:                                               ; preds = %32, %.lr.ph37
  %34 = getelementptr inbounds nuw i8, ptr %28, i64 336
  %35 = load i32, ptr %34, align 8, !tbaa !12
  %36 = icmp sgt i32 %35, %27
  br i1 %36, label %37, label %38

37:                                               ; preds = %33
  store i32 %27, ptr %34, align 8, !tbaa !12
  br label %38

38:                                               ; preds = %33, %37
  %.1 = phi ptr [ %.02534, %37 ], [ %.035, %33 ]
  %39 = tail call ptr @agnxtnode(ptr noundef nonnull %0, ptr noundef nonnull %.02534) #15
  %.not29 = icmp eq ptr %39, null
  br i1 %.not29, label %._crit_edge38, label %.lr.ph37, !llvm.loop !149

._crit_edge38:                                    ; preds = %38, %20
  %.0.lcssa = phi ptr [ null, %20 ], [ %.1, %38 ]
  %40 = load ptr, ptr %3, align 8, !tbaa !3
  %41 = getelementptr inbounds nuw i8, ptr %40, i64 376
  store ptr %.0.lcssa, ptr %41, align 8, !tbaa !42
  br label %42

42:                                               ; preds = %._crit_edge, %._crit_edge38
  ret void
}